target datalayout = "e-m:e-p270:32:32-p271:32:32-p272:64:64-i64:64-i128:128-f80:128-n8:16:32:64-S128"
target triple = "x86_64-pc-linux-gnu"

%struct._address = type { i32, i32, ptr, ptr }

@.str.39 = private unnamed_addr constant [8 x i8] c"GID: %s\00", align 1
@.str.40 = private unnamed_addr constant [8 x i8] c"LID: %u\00", align 1

; Function Attrs: null_pointer_is_valid sspstrong uwtable
define internal i32 @ib_addr_to_str(ptr noundef %0, ptr noundef %1, i32 noundef %2) #3 {
  %4 = alloca ptr, align 8
  %5 = alloca ptr, align 8
  %6 = alloca i32, align 4
  %7 = alloca [46 x i8], align 16
  store ptr %0, ptr %4, align 8
  store ptr %1, ptr %5, align 8
  store i32 %2, ptr %6, align 4
  call void @llvm.lifetime.start.p0(i64 46, ptr %7) #12
  %8 = load ptr, ptr %4, align 8
  %9 = getelementptr inbounds nuw %struct._address, ptr %8, i32 0, i32 1
  %10 = load i32, ptr %9, align 4
  %11 = icmp sge i32 %10, 16
  br i1 %11, label %12, label %25

12:                                               ; preds = %3
  %13 = load ptr, ptr %4, align 8
  %14 = getelementptr inbounds nuw %struct._address, ptr %13, i32 0, i32 2
  %15 = load ptr, ptr %14, align 8
  %16 = getelementptr inbounds [46 x i8], ptr %7, i64 0, i64 0
  %17 = call ptr @ws_inet_ntop6(ptr noundef %15, ptr noundef %16, i64 noundef 46)
  %18 = load ptr, ptr %5, align 8
  %19 = load i32, ptr %6, align 4
  %20 = sext i32 %19 to i64
  %21 = load ptr, ptr %5, align 8
  %22 = call i64 @llvm.objectsize.i64.p0(ptr %21, i1 false, i1 true, i1 true)
  %23 = getelementptr inbounds [46 x i8], ptr %7, i64 0, i64 0
  %24 = call i32 (ptr, i64, i32, i64, ptr, ...) @__snprintf_chk(ptr noundef %18, i64 noundef %20, i32 noundef 2, i64 noundef %22, ptr noundef @.str.39, ptr noundef %23)
  br label %37

25:                                               ; preds = %3
  %26 = load ptr, ptr %5, align 8
  %27 = load i32, ptr %6, align 4
  %28 = sext i32 %27 to i64
  %29 = load ptr, ptr %5, align 8
  %30 = call i64 @llvm.objectsize.i64.p0(ptr %29, i1 false, i1 true, i1 true)
  %31 = load ptr, ptr %4, align 8
  %32 = getelementptr inbounds nuw %struct._address, ptr %31, i32 0, i32 2
  %33 = load ptr, ptr %32, align 8
  %34 = load i16, ptr %33, align 2
  %35 = zext i16 %34 to i32
  %36 = call i32 (ptr, i64, i32, i64, ptr, ...) @__snprintf_chk(ptr noundef %26, i64 noundef %28, i32 noundef 2, i64 noundef %30, ptr noundef @.str.40, i32 noundef %35)
  br label %37

37:                                               ; preds = %25, %12
  %38 = load ptr, ptr %5, align 8
  %39 = call i64 @strlen(ptr noundef %38) #13
  %40 = add i64 %39, 1
  %41 = trunc i64 %40 to i32
  call void @llvm.lifetime.end.p0(i64 46, ptr %7) #12
  ret i32 %41
}