; Function Attrs: null_pointer_is_valid sspstrong uwtable
define internal i32 @ib_addr_to_str(ptr noundef readonly captures(none) %0, ptr noundef %1, i32 noundef %2) #6 {
  %4 = alloca [46 x i8], align 16
  call void @llvm.lifetime.start.p0(i64 46, ptr nonnull %4) #18
  %5 = getelementptr inbounds nuw i8, ptr %0, i64 4
  %6 = load i32, ptr %5, align 4
  %7 = icmp sgt i32 %6, 15
  br i1 %7, label %8, label %14

8:                                                ; preds = %3
  %9 = getelementptr inbounds nuw i8, ptr %0, i64 8
  %10 = load ptr, ptr %9, align 8
  %11 = call ptr @ws_inet_ntop6(ptr noundef %10, ptr noundef nonnull %4, i64 noundef 46)
  %12 = sext i32 %2 to i64
  %13 = call i32 (ptr, i64, i32, i64, ptr, ...) @__snprintf_chk(ptr noundef %1, i64 noundef %12, i32 noundef 2, i64 noundef -1, ptr noundef nonnull @.str.39, ptr noundef nonnull %4)
  br label %21

14:                                               ; preds = %3
  %15 = sext i32 %2 to i64
  %16 = getelementptr inbounds nuw i8, ptr %0, i64 8
  %17 = load ptr, ptr %16, align 8
  %18 = load i16, ptr %17, align 2
  %19 = zext i16 %18 to i32
  %20 = tail call i32 (ptr, i64, i32, i64, ptr, ...) @__snprintf_chk(ptr noundef %1, i64 noundef %15, i32 noundef 2, i64 noundef -1, ptr noundef nonnull @.str.40, i32 noundef %19)
  br label %21

21:                                               ; preds = %14, %8
  %22 = call i64 @strlen(ptr noundef %1) #17
  %23 = trunc i64 %22 to i32
  %24 = add i32 %23, 1
  call void @llvm.lifetime.end.p0(i64 46, ptr nonnull %4) #18
  ret i32 %24
}